target datalayout = "e-m:e-p270:32:32-p271:32:32-p272:64:64-i64:64-i128:128-f80:128-n8:16:32:64-S128"
target triple = "x86_64-pc-linux-gnu"

%struct.pmix_data_buffer = type { ptr, ptr, ptr, i64, i64 }
%struct.pmix_byte_object = type { ptr, i64 }

; Function Attrs: nounwind uwtable
define i32 @PMIx_Data_embed(ptr noundef %0, ptr noundef %1) #0 {
  %3 = alloca i32, align 4
  %4 = alloca ptr, align 8
  %5 = alloca ptr, align 8
  %6 = alloca %struct.pmix_data_buffer, align 8
  %7 = alloca i32, align 4
  %8 = alloca i32, align 4
  store ptr %0, ptr %4, align 8, !tbaa !8
  store ptr %1, ptr %5, align 8, !tbaa !120
  call void @llvm.lifetime.start.p0(i64 40, ptr %6) #12
  call void @llvm.lifetime.start.p0(i64 4, ptr %7) #12
  %9 = load ptr, ptr %4, align 8, !tbaa !8
  %10 = icmp eq ptr null, %9
  br i1 %10, label %11, label %12

11:                                               ; preds = %2
  store i32 -27, ptr %3, align 4
  store i32 1, ptr %8, align 4
  br label %41

12:                                               ; preds = %2
  %13 = load ptr, ptr %4, align 8, !tbaa !8
  call void @PMIx_Data_buffer_destruct(ptr noundef %13)
  %14 = load ptr, ptr %4, align 8, !tbaa !8
  call void @PMIx_Data_buffer_construct(ptr noundef %14)
  %15 = load ptr, ptr %5, align 8, !tbaa !120
  %16 = icmp eq ptr null, %15
  br i1 %16, label %17, label %18

17:                                               ; preds = %12
  store i32 0, ptr %3, align 4
  store i32 1, ptr %8, align 4
  br label %41

18:                                               ; preds = %12
  %19 = load ptr, ptr %5, align 8, !tbaa !120
  %20 = getelementptr inbounds nuw %struct.pmix_byte_object, ptr %19, i32 0, i32 0
  %21 = load ptr, ptr %20, align 8, !tbaa !122
  %22 = getelementptr inbounds nuw %struct.pmix_data_buffer, ptr %6, i32 0, i32 0
  store ptr %21, ptr %22, align 8, !tbaa !61
  %23 = getelementptr inbounds nuw %struct.pmix_data_buffer, ptr %6, i32 0, i32 0
  %24 = load ptr, ptr %23, align 8, !tbaa !61
  %25 = load ptr, ptr %5, align 8, !tbaa !120
  %26 = getelementptr inbounds nuw %struct.pmix_byte_object, ptr %25, i32 0, i32 1
  %27 = load i64, ptr %26, align 8, !tbaa !124
  %28 = getelementptr inbounds nuw i8, ptr %24, i64 %27
  %29 = getelementptr inbounds nuw %struct.pmix_data_buffer, ptr %6, i32 0, i32 1
  store ptr %28, ptr %29, align 8, !tbaa !64
  %30 = getelementptr inbounds nuw %struct.pmix_data_buffer, ptr %6, i32 0, i32 0
  %31 = load ptr, ptr %30, align 8, !tbaa !61
  %32 = getelementptr inbounds nuw %struct.pmix_data_buffer, ptr %6, i32 0, i32 2
  store ptr %31, ptr %32, align 8, !tbaa !66
  %33 = load ptr, ptr %5, align 8, !tbaa !120
  %34 = getelementptr inbounds nuw %struct.pmix_byte_object, ptr %33, i32 0, i32 1
  %35 = load i64, ptr %34, align 8, !tbaa !124
  %36 = getelementptr inbounds nuw %struct.pmix_data_buffer, ptr %6, i32 0, i32 4
  store i64 %35, ptr %36, align 8, !tbaa !70
  %37 = getelementptr inbounds nuw %struct.pmix_data_buffer, ptr %6, i32 0, i32 3
  store i64 %35, ptr %37, align 8, !tbaa !68
  %38 = load ptr, ptr %4, align 8, !tbaa !8
  %39 = call i32 @PMIx_Data_copy_payload(ptr noundef %38, ptr noundef %6)
  store i32 %39, ptr %7, align 4, !tbaa !11
  %40 = load i32, ptr %7, align 4, !tbaa !11
  store i32 %40, ptr %3, align 4
  store i32 1, ptr %8, align 4
  br label %41

41:                                               ; preds = %18, %17, %11
  call void @llvm.lifetime.end.p0(i64 4, ptr %7) #12
  call void @llvm.lifetime.end.p0(i64 40, ptr %6) #12
  %42 = load i32, ptr %3, align 4
  ret i32 %42
}