; Function Attrs: nounwind uwtable
define i32 @PMIx_Data_embed(ptr noundef %0, ptr noundef readonly captures(address_is_null) %1) local_unnamed_addr #0 {
  %3 = alloca %struct.pmix_data_buffer, align 8
  call void @llvm.lifetime.start.p0(i64 40, ptr nonnull %3) #13
  %4 = icmp eq ptr %0, null
  br i1 %4, label %17, label %5

5:                                                ; preds = %2
  tail call void @PMIx_Data_buffer_destruct(ptr noundef nonnull %0) #13
  tail call void @PMIx_Data_buffer_construct(ptr noundef nonnull %0) #13
  %6 = icmp eq ptr %1, null
  br i1 %6, label %17, label %7

7:                                                ; preds = %5
  %8 = load ptr, ptr %1, align 8, !tbaa !104
  store ptr %8, ptr %3, align 8, !tbaa !58
  %9 = getelementptr inbounds nuw i8, ptr %1, i64 8
  %10 = load i64, ptr %9, align 8, !tbaa !106
  %11 = getelementptr inbounds nuw i8, ptr %8, i64 %10
  %12 = getelementptr inbounds nuw i8, ptr %3, i64 8
  store ptr %11, ptr %12, align 8, !tbaa !61
  %13 = getelementptr inbounds nuw i8, ptr %3, i64 16
  store ptr %8, ptr %13, align 8, !tbaa !63
  %14 = getelementptr inbounds nuw i8, ptr %3, i64 32
  store i64 %10, ptr %14, align 8, !tbaa !67
  %15 = getelementptr inbounds nuw i8, ptr %3, i64 24
  store i64 %10, ptr %15, align 8, !tbaa !65
  %16 = call i32 @PMIx_Data_copy_payload(ptr noundef nonnull %0, ptr noundef nonnull %3)
  br label %17

17:                                               ; preds = %5, %2, %7
  %.0 = phi i32 [ %16, %7 ], [ -27, %2 ], [ 0, %5 ]
  call void @llvm.lifetime.end.p0(i64 40, ptr nonnull %3) #13
  ret i32 %.0
}